(dp1
S'areaid1000'
p2
(lp3
V10.66.49.17
p4
aV10.66.49.18
p5
aV10.66.49.19
p6
aV10.66.49.20
p7
aV10.66.49.21
p8
aV10.66.49.22
p9
aV10.66.49.23
p10
aV10.66.49.24
p11
aV10.66.49.25
p12
aV10.66.49.26
p13
aV10.66.49.33
p14
aV10.66.49.34
p15
aV10.66.49.35
p16
aV10.66.49.36
p17
aV10.66.49.37
p18
aV10.66.49.38
p19
aV10.66.49.65
p20
aV10.66.49.66
p21
aV10.66.49.67
p22
aV10.66.49.68
p23
aV10.66.49.69
p24
aV10.66.49.70
p25
aV10.66.49.71
p26
aV10.66.49.72
p27
aV10.66.49.73
p28
aV10.66.49.74
p29
aV10.66.49.75
p30
aV10.66.49.76
p31
aV10.66.49.77
p32
aV10.66.49.78
p33
aV10.66.49.79
p34
aV10.66.49.80
p35
aV10.66.49.81
p36
aV10.66.49.82
p37
aV10.66.49.83
p38
aV10.66.49.84
p39
aV10.66.49.85
p40
aV10.66.49.86
p41
aV10.66.49.87
p42
aV10.66.49.88
p43
aV10.66.49.129
p44
aV10.66.49.130
p45
aV10.66.49.131
p46
aV10.66.49.132
p47
aV10.66.49.133
p48
aV10.66.49.134
p49
aV10.66.49.135
p50
aV10.66.49.136
p51
aV10.66.49.137
p52
aV10.66.49.138
p53
aV10.66.49.139
p54
aV10.66.49.140
p55
aV10.66.49.141
p56
aV10.66.49.142
p57
aV10.66.49.143
p58
aV10.66.49.144
p59
aV10.66.49.145
p60
aV10.66.49.146
p61
aV10.66.49.147
p62
aV10.66.49.148
p63
aV10.66.49.149
p64
aV10.66.49.150
p65
aV10.66.49.151
p66
aV10.66.49.152
p67
aV10.66.49.153
p68
aV10.66.49.154
p69
aV10.66.49.155
p70
aV10.66.49.156
p71
aV10.66.49.157
p72
aV10.66.49.158
p73
aV10.66.49.159
p74
aV10.66.49.160
p75
aV10.66.49.161
p76
aV10.66.49.162
p77
aV10.66.49.163
p78
aV10.66.49.164
p79
aV10.66.49.165
p80
aV10.66.49.166
p81
aV10.66.49.167
p82
aV10.66.49.168
p83
aV10.66.49.169
p84
aV10.66.49.170
p85
aV10.66.49.171
p86
aV10.66.49.172
p87
aV10.66.49.173
p88
aV10.66.49.174
p89
aV10.66.49.175
p90
aV10.66.49.176
p91
aV58.211.121.114
p92
aV172.18.10.194
p93
aV172.18.10.161
p94
aV172.18.10.193
p95
aV172.18.10.135
p96
aV172.18.10.132
p97
aV172.18.10.130
p98
aV172.18.10.131
p99
aV172.18.10.134
p100
aV221.233.60.163
p101
aV61.155.215.91
p102
aV172.18.10.129
p103
aV10.66.49.2
p104
aV10.66.49.8
p105
aV172.18.10.133
p106
aV172.18.10.136
p107
as.(dp1
S'areaid3000'
p2
(lp3
V192.168.1.5
p4
aV192.168.1.1
p5
aV192.168.1.2
p6
aV192.168.1.3
p7
aV192.168.1.4
p8
aV192.168.1.7
p9
aV192.168.1.8
p10
aV192.168.1.9
p11
aV192.168.1.10
p12
aV192.168.1.11
p13
aV192.168.1.12
p14
aV192.168.1.13
p15
aV192.168.1.14
p16
aV192.168.1.15
p17
aV192.168.1.16
p18
aV192.168.1.17
p19
aV192.168.1.18
p20
aV192.168.1.19
p21
aV192.168.1.20
p22
aV192.168.1.21
p23
aV192.168.1.22
p24
aV192.168.1.23
p25
aV192.168.1.24
p26
aV192.168.1.25
p27
aV192.168.1.26
p28
aV192.168.1.27
p29
aV192.168.1.28
p30
aV192.168.1.29
p31
aV192.168.1.30
p32
aV192.168.1.31
p33
aV192.168.1.32
p34
aV192.168.1.33
p35
aV192.168.1.34
p36
aV192.168.1.35
p37
aV192.168.1.36
p38
aV192.168.1.37
p39
aV192.168.1.38
p40
aV192.168.1.39
p41
aV192.168.1.40
p42
aV192.168.1.41
p43
aV192.168.1.42
p44
aV192.168.1.43
p45
aV192.168.1.44
p46
aV192.168.1.46
p47
aV192.168.1.47
p48
aV192.168.1.48
p49
aV192.168.1.49
p50
aV192.168.1.50
p51
aV192.168.1.51
p52
aV192.168.1.52
p53
aV192.168.1.53
p54
aV192.168.1.54
p55
aV192.168.1.55
p56
aV192.168.1.56
p57
aV192.168.1.57
p58
aV192.168.1.58
p59
aV192.168.1.59
p60
aV192.168.1.60
p61
aV192.168.1.6
p62
aV192.168.1.61
p63
aV192.168.1.62
p64
aV192.168.1.63
p65
aV192.168.1.64
p66
aV192.168.1.65
p67
aV192.168.1.66
p68
aV192.168.1.67
p69
aV192.168.1.68
p70
aV192.168.1.69
p71
aV192.168.1.70
p72
aV222.208.168.82
p73
aV58.211.121.114
p74
aV221.233.60.163
p75
as.(dp1
S'areaid4000'
p2
(lp3
VZabbix server
p4
aV192.168.71.1
p5
aV192.168.71.2
p6
aV192.168.71.3
p7
aV192.168.71.4
p8
aV192.168.71.6
p9
aV192.168.71.7
p10
aV192.168.71.8
p11
aV192.168.71.9
p12
aV192.168.71.10
p13
aV192.168.71.11
p14
aV192.168.71.12
p15
aV192.168.71.13
p16
aV192.168.71.14
p17
aV192.168.71.15
p18
aV192.168.71.16
p19
aV192.168.71.17
p20
aV192.168.71.18
p21
aV192.168.71.19
p22
aV192.168.71.20
p23
aV192.168.71.21
p24
aV192.168.71.22
p25
aV192.168.71.23
p26
aV192.168.71.24
p27
aV192.168.71.25
p28
aV192.168.71.26
p29
aV192.168.71.251
p30
aV222.208.168.82
p31
aV58.211.121.114
p32
aV61.155.215.91
p33
aV192.168.71.252
p34
as.(dp1
S'areaid2000'
p2
(lp3
V192.168.43.208
p4
aV192.168.43.201
p5
aV192.168.43.202
p6
aV192.168.43.203
p7
aV192.168.43.204
p8
aV192.168.43.205
p9
aV192.168.43.206
p10
aV192.168.43.207
p11
aV192.168.43.209
p12
aV192.168.43.210
p13
aV192.168.43.211
p14
aV192.168.43.212
p15
aV192.168.43.213
p16
aV192.168.43.214
p17
aV192.168.43.215
p18
aV192.168.43.216
p19
aV192.168.43.217
p20
aV192.168.43.218
p21
aV192.168.43.219
p22
aV192.168.43.220
p23
aV192.168.43.221
p24
aV192.168.43.222
p25
aV192.168.43.223
p26
aV192.168.43.224
p27
aV192.168.43.225
p28
aV192.168.43.226
p29
aV192.168.43.227
p30
aV192.168.43.228
p31
aV192.168.43.229
p32
aV192.168.40.254
p33
aV222.208.168.82
p34
aV221.233.60.163
p35
aV61.155.215.91
p36
as.